target datalayout = "e-m:e-p270:32:32-p271:32:32-p272:64:64-i64:64-i128:128-f80:128-n8:16:32:64-S128"
target triple = "x86_64-pc-linux-gnu"

%struct.dnslabel_table = type { i32, [128 x %struct.dnslabel_entry] }
%struct.dnslabel_entry = type { ptr, i64 }

; Function Attrs: nounwind uwtable
define internal i32 @dnslabel_table_add(ptr noundef %0, ptr noundef %1, i64 noundef %2) #0 {
  %4 = alloca i32, align 4
  %5 = alloca ptr, align 8
  %6 = alloca ptr, align 8
  %7 = alloca i64, align 8
  %8 = alloca ptr, align 8
  %9 = alloca i32, align 4
  %10 = alloca i32, align 4
  store ptr %0, ptr %5, align 8
  store ptr %1, ptr %6, align 8
  store i64 %2, ptr %7, align 8
  call void @llvm.lifetime.start.p0(i64 8, ptr %8) #10
  call void @llvm.lifetime.start.p0(i64 4, ptr %9) #10
  %11 = load ptr, ptr %5, align 8
  %12 = getelementptr inbounds nuw %struct.dnslabel_table, ptr %11, i32 0, i32 0
  %13 = load i32, ptr %12, align 8
  %14 = icmp eq i32 %13, 128
  br i1 %14, label %15, label %16

15:                                               ; preds = %3
  store i32 -1, ptr %4, align 4
  store i32 1, ptr %10, align 4
  br label %41

16:                                               ; preds = %3
  %17 = load ptr, ptr %6, align 8
  %18 = call ptr @event_mm_strdup_(ptr noundef %17)
  store ptr %18, ptr %8, align 8
  %19 = load ptr, ptr %8, align 8
  %20 = icmp eq ptr %19, null
  br i1 %20, label %21, label %22

21:                                               ; preds = %16
  store i32 -1, ptr %4, align 4
  store i32 1, ptr %10, align 4
  br label %41

22:                                               ; preds = %16
  %23 = load ptr, ptr %5, align 8
  %24 = getelementptr inbounds nuw %struct.dnslabel_table, ptr %23, i32 0, i32 0
  %25 = load i32, ptr %24, align 8
  %26 = add nsw i32 %25, 1
  store i32 %26, ptr %24, align 8
  store i32 %25, ptr %9, align 4
  %27 = load ptr, ptr %8, align 8
  %28 = load ptr, ptr %5, align 8
  %29 = getelementptr inbounds nuw %struct.dnslabel_table, ptr %28, i32 0, i32 1
  %30 = load i32, ptr %9, align 4
  %31 = sext i32 %30 to i64
  %32 = getelementptr inbounds [128 x %struct.dnslabel_entry], ptr %29, i64 0, i64 %31
  %33 = getelementptr inbounds nuw %struct.dnslabel_entry, ptr %32, i32 0, i32 0
  store ptr %27, ptr %33, align 8
  %34 = load i64, ptr %7, align 8
  %35 = load ptr, ptr %5, align 8
  %36 = getelementptr inbounds nuw %struct.dnslabel_table, ptr %35, i32 0, i32 1
  %37 = load i32, ptr %9, align 4
  %38 = sext i32 %37 to i64
  %39 = getelementptr inbounds [128 x %struct.dnslabel_entry], ptr %36, i64 0, i64 %38
  %40 = getelementptr inbounds nuw %struct.dnslabel_entry, ptr %39, i32 0, i32 1
  store i64 %34, ptr %40, align 8
  store i32 0, ptr %4, align 4
  store i32 1, ptr %10, align 4
  br label %41

41:                                               ; preds = %22, %21, %15
  call void @llvm.lifetime.end.p0(i64 4, ptr %9) #10
  call void @llvm.lifetime.end.p0(i64 8, ptr %8) #10
  %42 = load i32, ptr %4, align 4
  ret i32 %42
}

; Function Attrs: inlinehint nounwind uwtable
define internal zeroext i16 @__bswap_16(i16 noundef zeroext %0) #5 {
  %2 = alloca i16, align 2
  store i16 %0, ptr %2, align 2
  %3 = load i16, ptr %2, align 2
  %4 = zext i16 %3 to i32
  %5 = ashr i32 %4, 8
  %6 = and i32 %5, 255
  %7 = load i16, ptr %2, align 2
  %8 = zext i16 %7 to i32
  %9 = and i32 %8, 255
  %10 = shl i32 %9, 8
  %11 = or i32 %6, %10
  %12 = trunc i32 %11 to i16
  ret i16 %12
}

; Function Attrs: nounwind uwtable
define internal i32 @dnslabel_table_get_pos(ptr noundef %0, ptr noundef %1) #0 {
  %3 = alloca i32, align 4
  %4 = alloca ptr, align 8
  %5 = alloca ptr, align 8
  %6 = alloca i32, align 4
  %7 = alloca i32, align 4
  store ptr %0, ptr %4, align 8
  store ptr %1, ptr %5, align 8
  call void @llvm.lifetime.start.p0(i64 4, ptr %6) #10
  store i32 0, ptr %6, align 4
  br label %8

8:                                                ; preds = %35, %2
  %9 = load i32, ptr %6, align 4
  %10 = load ptr, ptr %4, align 8
  %11 = getelementptr inbounds nuw %struct.dnslabel_table, ptr %10, i32 0, i32 0
  %12 = load i32, ptr %11, align 8
  %13 = icmp slt i32 %9, %12
  br i1 %13, label %14, label %38

14:                                               ; preds = %8
  %15 = load ptr, ptr %5, align 8
  %16 = load ptr, ptr %4, align 8
  %17 = getelementptr inbounds nuw %struct.dnslabel_table, ptr %16, i32 0, i32 1
  %18 = load i32, ptr %6, align 4
  %19 = sext i32 %18 to i64
  %20 = getelementptr inbounds [128 x %struct.dnslabel_entry], ptr %17, i64 0, i64 %19
  %21 = getelementptr inbounds nuw %struct.dnslabel_entry, ptr %20, i32 0, i32 0
  %22 = load ptr, ptr %21, align 8
  %23 = call i32 @strcmp(ptr noundef %15, ptr noundef %22) #12
  %24 = icmp ne i32 %23, 0
  br i1 %24, label %34, label %25

25:                                               ; preds = %14
  %26 = load ptr, ptr %4, align 8
  %27 = getelementptr inbounds nuw %struct.dnslabel_table, ptr %26, i32 0, i32 1
  %28 = load i32, ptr %6, align 4
  %29 = sext i32 %28 to i64
  %30 = getelementptr inbounds [128 x %struct.dnslabel_entry], ptr %27, i64 0, i64 %29
  %31 = getelementptr inbounds nuw %struct.dnslabel_entry, ptr %30, i32 0, i32 1
  %32 = load i64, ptr %31, align 8
  %33 = trunc i64 %32 to i32
  store i32 %33, ptr %3, align 4
  store i32 1, ptr %7, align 4
  br label %39

34:                                               ; preds = %14
  br label %35

35:                                               ; preds = %34
  %36 = load i32, ptr %6, align 4
  %37 = add nsw i32 %36, 1
  store i32 %37, ptr %6, align 4
  br label %8, !llvm.loop !43

38:                                               ; preds = %8
  store i32 -1, ptr %3, align 4
  store i32 1, ptr %7, align 4
  br label %39

39:                                               ; preds = %38, %25
  call void @llvm.lifetime.end.p0(i64 4, ptr %6) #10
  %40 = load i32, ptr %3, align 4
  ret i32 %40
}

; Function Attrs: nounwind uwtable
define internal i64 @dnsname_to_labels(ptr noundef %0, i64 noundef %1, i64 noundef %2, ptr noundef %3, i64 noundef %4, ptr noundef %5) #0 {
  %7 = alloca i64, align 8
  %8 = alloca ptr, align 8
  %9 = alloca i64, align 8
  %10 = alloca i64, align 8
  %11 = alloca ptr, align 8
  %12 = alloca i64, align 8
  %13 = alloca ptr, align 8
  %14 = alloca ptr, align 8
  %15 = alloca i32, align 4
  %16 = alloca i16, align 2
  %17 = alloca i32, align 4
  %18 = alloca ptr, align 8
  %19 = alloca i64, align 8
  %20 = alloca i64, align 8
  store ptr %0, ptr %8, align 8
  store i64 %1, ptr %9, align 8
  store i64 %2, ptr %10, align 8
  store ptr %3, ptr %11, align 8
  store i64 %4, ptr %12, align 8
  store ptr %5, ptr %13, align 8
  call void @llvm.lifetime.start.p0(i64 8, ptr %14) #10
  %21 = load ptr, ptr %11, align 8
  %22 = load i64, ptr %12, align 8
  %23 = getelementptr inbounds nuw i8, ptr %21, i64 %22
  store ptr %23, ptr %14, align 8
  call void @llvm.lifetime.start.p0(i64 4, ptr %15) #10
  store i32 0, ptr %15, align 4
  call void @llvm.lifetime.start.p0(i64 2, ptr %16) #10
  %24 = load i64, ptr %12, align 8
  %25 = icmp ugt i64 %24, 255
  br i1 %25, label %26, label %27

26:                                               ; preds = %6
  store i64 -2, ptr %7, align 8
  store i32 1, ptr %17, align 4
  br label %175

27:                                               ; preds = %6
  br label %28

28:                                               ; preds = %155, %27
  call void @llvm.lifetime.start.p0(i64 8, ptr %18) #10
  %29 = load ptr, ptr %11, align 8
  store ptr %29, ptr %18, align 8
  %30 = load ptr, ptr %13, align 8
  %31 = icmp ne ptr %30, null
  br i1 %31, label %32, label %57

32:                                               ; preds = %28
  %33 = load ptr, ptr %13, align 8
  %34 = load ptr, ptr %11, align 8
  %35 = call i32 @dnslabel_table_get_pos(ptr noundef %33, ptr noundef %34)
  store i32 %35, ptr %15, align 4
  %36 = icmp sge i32 %35, 0
  br i1 %36, label %37, label %57

37:                                               ; preds = %32
  br label %38

38:                                               ; preds = %37
  %39 = load i64, ptr %10, align 8
  %40 = add nsw i64 %39, 2
  %41 = load i64, ptr %9, align 8
  %42 = icmp sgt i64 %40, %41
  br i1 %42, label %43, label %44

43:                                               ; preds = %38
  store i32 6, ptr %17, align 4
  br label %153

44:                                               ; preds = %38
  %45 = load i32, ptr %15, align 4
  %46 = or i32 %45, 49152
  %47 = trunc i32 %46 to i16
  %48 = call zeroext i16 @__bswap_16(i16 noundef zeroext %47)
  store i16 %48, ptr %16, align 2
  %49 = load ptr, ptr %8, align 8
  %50 = load i64, ptr %10, align 8
  %51 = getelementptr inbounds i8, ptr %49, i64 %50
  call void @llvm.memcpy.p0.p0.i64(ptr align 1 %51, ptr align 2 %16, i64 2, i1 false)
  %52 = load i64, ptr %10, align 8
  %53 = add nsw i64 %52, 2
  store i64 %53, ptr %10, align 8
  br label %54

54:                                               ; preds = %44
  br label %55

55:                                               ; preds = %54
  %56 = load i64, ptr %10, align 8
  store i64 %56, ptr %7, align 8
  store i32 1, ptr %17, align 4
  br label %153

57:                                               ; preds = %32, %28
  %58 = load ptr, ptr %11, align 8
  %59 = call ptr @strchr(ptr noundef %58, i32 noundef 46) #12
  store ptr %59, ptr %11, align 8
  %60 = load ptr, ptr %11, align 8
  %61 = icmp ne ptr %60, null
  br i1 %61, label %105, label %62

62:                                               ; preds = %57
  call void @llvm.lifetime.start.p0(i64 8, ptr %19) #10
  %63 = load ptr, ptr %14, align 8
  %64 = load ptr, ptr %18, align 8
  %65 = ptrtoint ptr %63 to i64
  %66 = ptrtoint ptr %64 to i64
  %67 = sub i64 %65, %66
  store i64 %67, ptr %19, align 8
  %68 = load i64, ptr %19, align 8
  %69 = icmp ugt i64 %68, 63
  br i1 %69, label %70, label %71

70:                                               ; preds = %62
  store i64 -1, ptr %7, align 8
  store i32 1, ptr %17, align 4
  br label %104

71:                                               ; preds = %62
  %72 = load i64, ptr %10, align 8
  %73 = load i64, ptr %19, align 8
  %74 = add i64 %72, %73
  %75 = add i64 %74, 1
  %76 = load i64, ptr %9, align 8
  %77 = icmp ugt i64 %75, %76
  br i1 %77, label %78, label %79

78:                                               ; preds = %71
  store i64 -2, ptr %7, align 8
  store i32 1, ptr %17, align 4
  br label %104

79:                                               ; preds = %71
  %80 = load ptr, ptr %13, align 8
  %81 = icmp ne ptr %80, null
  br i1 %81, label %82, label %87

82:                                               ; preds = %79
  %83 = load ptr, ptr %13, align 8
  %84 = load ptr, ptr %18, align 8
  %85 = load i64, ptr %10, align 8
  %86 = call i32 @dnslabel_table_add(ptr noundef %83, ptr noundef %84, i64 noundef %85)
  br label %87

87:                                               ; preds = %82, %79
  %88 = load i64, ptr %19, align 8
  %89 = trunc i64 %88 to i8
  %90 = load ptr, ptr %8, align 8
  %91 = load i64, ptr %10, align 8
  %92 = add nsw i64 %91, 1
  store i64 %92, ptr %10, align 8
  %93 = getelementptr inbounds i8, ptr %90, i64 %91
  store i8 %89, ptr %93, align 1
  %94 = load ptr, ptr %8, align 8
  %95 = load i64, ptr %10, align 8
  %96 = getelementptr inbounds i8, ptr %94, i64 %95
  %97 = load ptr, ptr %18, align 8
  %98 = load i64, ptr %19, align 8
  call void @llvm.memcpy.p0.p0.i64(ptr align 1 %96, ptr align 1 %97, i64 %98, i1 false)
  %99 = load i64, ptr %19, align 8
  %100 = trunc i64 %99 to i32
  %101 = sext i32 %100 to i64
  %102 = load i64, ptr %10, align 8
  %103 = add nsw i64 %102, %101
  store i64 %103, ptr %10, align 8
  store i32 2, ptr %17, align 4
  br label %104

104:                                              ; preds = %87, %78, %70
  call void @llvm.lifetime.end.p0(i64 8, ptr %19) #10
  br label %153

105:                                              ; preds = %57
  call void @llvm.lifetime.start.p0(i64 8, ptr %20) #10
  %106 = load ptr, ptr %11, align 8
  %107 = load ptr, ptr %18, align 8
  %108 = ptrtoint ptr %106 to i64
  %109 = ptrtoint ptr %107 to i64
  %110 = sub i64 %108, %109
  store i64 %110, ptr %20, align 8
  %111 = load i64, ptr %20, align 8
  %112 = icmp ugt i64 %111, 63
  br i1 %112, label %113, label %114

113:                                              ; preds = %105
  store i64 -1, ptr %7, align 8
  store i32 1, ptr %17, align 4
  br label %149

114:                                              ; preds = %105
  %115 = load i64, ptr %10, align 8
  %116 = load i64, ptr %20, align 8
  %117 = add i64 %115, %116
  %118 = add i64 %117, 1
  %119 = load i64, ptr %9, align 8
  %120 = icmp ugt i64 %118, %119
  br i1 %120, label %121, label %122

121:                                              ; preds = %114
  store i64 -2, ptr %7, align 8
  store i32 1, ptr %17, align 4
  br label %149

122:                                              ; preds = %114
  %123 = load ptr, ptr %13, align 8
  %124 = icmp ne ptr %123, null
  br i1 %124, label %125, label %130

125:                                              ; preds = %122
  %126 = load ptr, ptr %13, align 8
  %127 = load ptr, ptr %18, align 8
  %128 = load i64, ptr %10, align 8
  %129 = call i32 @dnslabel_table_add(ptr noundef %126, ptr noundef %127, i64 noundef %128)
  br label %130

130:                                              ; preds = %125, %122
  %131 = load i64, ptr %20, align 8
  %132 = trunc i64 %131 to i8
  %133 = load ptr, ptr %8, align 8
  %134 = load i64, ptr %10, align 8
  %135 = add nsw i64 %134, 1
  store i64 %135, ptr %10, align 8
  %136 = getelementptr inbounds i8, ptr %133, i64 %134
  store i8 %132, ptr %136, align 1
  %137 = load ptr, ptr %8, align 8
  %138 = load i64, ptr %10, align 8
  %139 = getelementptr inbounds i8, ptr %137, i64 %138
  %140 = load ptr, ptr %18, align 8
  %141 = load i64, ptr %20, align 8
  call void @llvm.memcpy.p0.p0.i64(ptr align 1 %139, ptr align 1 %140, i64 %141, i1 false)
  %142 = load i64, ptr %20, align 8
  %143 = trunc i64 %142 to i32
  %144 = sext i32 %143 to i64
  %145 = load i64, ptr %10, align 8
  %146 = add nsw i64 %145, %144
  store i64 %146, ptr %10, align 8
  %147 = load ptr, ptr %11, align 8
  %148 = getelementptr inbounds nuw i8, ptr %147, i32 1
  store ptr %148, ptr %11, align 8
  store i32 0, ptr %17, align 4
  br label %149

149:                                              ; preds = %130, %121, %113
  call void @llvm.lifetime.end.p0(i64 8, ptr %20) #10
  %150 = load i32, ptr %17, align 4
  switch i32 %150, label %153 [
    i32 0, label %151
  ]

151:                                              ; preds = %149
  br label %152

152:                                              ; preds = %151
  store i32 0, ptr %17, align 4
  br label %153

153:                                              ; preds = %43, %152, %149, %104, %55
  call void @llvm.lifetime.end.p0(i64 8, ptr %18) #10
  %154 = load i32, ptr %17, align 4
  switch i32 %154, label %175 [
    i32 0, label %155
    i32 2, label %156
    i32 6, label %174
  ]

155:                                              ; preds = %153
  br label %28

156:                                              ; preds = %153
  %157 = load i64, ptr %10, align 8
  %158 = icmp ne i64 %157, 0
  br i1 %158, label %159, label %167

159:                                              ; preds = %156
  %160 = load ptr, ptr %8, align 8
  %161 = load i64, ptr %10, align 8
  %162 = sub nsw i64 %161, 1
  %163 = getelementptr inbounds i8, ptr %160, i64 %162
  %164 = load i8, ptr %163, align 1
  %165 = zext i8 %164 to i32
  %166 = icmp ne i32 %165, 0
  br i1 %166, label %167, label %172

167:                                              ; preds = %159, %156
  %168 = load ptr, ptr %8, align 8
  %169 = load i64, ptr %10, align 8
  %170 = add nsw i64 %169, 1
  store i64 %170, ptr %10, align 8
  %171 = getelementptr inbounds i8, ptr %168, i64 %169
  store i8 0, ptr %171, align 1
  br label %172

172:                                              ; preds = %167, %159
  %173 = load i64, ptr %10, align 8
  store i64 %173, ptr %7, align 8
  store i32 1, ptr %17, align 4
  br label %175

174:                                              ; preds = %153
  store i64 -2, ptr %7, align 8
  store i32 1, ptr %17, align 4
  br label %175

175:                                              ; preds = %174, %172, %153, %26
  call void @llvm.lifetime.end.p0(i64 2, ptr %16) #10
  call void @llvm.lifetime.end.p0(i64 4, ptr %15) #10
  call void @llvm.lifetime.end.p0(i64 8, ptr %14) #10
  %176 = load i64, ptr %7, align 8
  ret i64 %176
}