; Function Attrs: nounwind uwtable
define internal fastcc range(i64 -9223372036854775807, -9223372036854775808) i64 @dnsname_to_labels(ptr noundef captures(none) %0, i64 noundef range(i64 12, -9223372036854775808) %1, i64 noundef %2, ptr noundef %3, i64 noundef %4, ptr noundef captures(address_is_null) %5) unnamed_addr #2 {
  %7 = getelementptr inbounds nuw i8, ptr %3, i64 %4
  %8 = icmp ugt i64 %4, 255
  br i1 %8, label %.thread, label %.preheader

.preheader:                                       ; preds = %6
  %.not = icmp eq ptr %5, null
  %9 = getelementptr inbounds nuw i8, ptr %5, i64 8
  br i1 %.not, label %.preheader.split.us, label %.preheader.split

.preheader.split.us:                              ; preds = %.preheader
  %10 = tail call ptr @strchr(ptr noundef nonnull dereferenceable(1) %3, i32 noundef 46) #23
  %.not83.us115 = icmp eq ptr %10, null
  br i1 %.not83.us115, label %.split.us, label %.lr.ph

.lr.ph:                                           ; preds = %.preheader.split.us, %dnslabel_table_get_pos.exit.thread.us
  %11 = phi ptr [ %24, %dnslabel_table_get_pos.exit.thread.us ], [ %10, %.preheader.split.us ]
  %.063.us117 = phi i64 [ %18, %dnslabel_table_get_pos.exit.thread.us ], [ %2, %.preheader.split.us ]
  %.068.us116 = phi ptr [ %23, %dnslabel_table_get_pos.exit.thread.us ], [ %3, %.preheader.split.us ]
  %12 = ptrtoint ptr %11 to i64
  %13 = ptrtoint ptr %.068.us116 to i64
  %14 = sub i64 %12, %13
  %15 = icmp ugt i64 %14, 63
  br i1 %15, label %.thread, label %16

16:                                               ; preds = %.lr.ph
  %17 = add i64 %.063.us117, 1
  %18 = add i64 %17, %14
  %19 = icmp ugt i64 %18, %1
  br i1 %19, label %.thread, label %dnslabel_table_get_pos.exit.thread.us

dnslabel_table_get_pos.exit.thread.us:            ; preds = %16
  %20 = trunc nuw nsw i64 %14 to i8
  %21 = getelementptr inbounds i8, ptr %0, i64 %.063.us117
  store i8 %20, ptr %21, align 1
  %22 = getelementptr inbounds i8, ptr %0, i64 %17
  tail call void @llvm.memcpy.p0.p0.i64(ptr align 1 %22, ptr nonnull align 1 %.068.us116, i64 %14, i1 false)
  %23 = getelementptr inbounds nuw i8, ptr %11, i64 1
  %24 = tail call ptr @strchr(ptr noundef nonnull dereferenceable(1) %23, i32 noundef 46) #23
  %.not83.us = icmp eq ptr %24, null
  br i1 %.not83.us, label %.split.us, label %.lr.ph

.preheader.split:                                 ; preds = %.preheader, %85
  %.068 = phi ptr [ %89, %85 ], [ %3, %.preheader ]
  %.063 = phi i64 [ %72, %85 ], [ %2, %.preheader ]
  %25 = load i32, ptr %5, align 8
  %26 = icmp sgt i32 %25, 0
  br i1 %26, label %.lr.ph.i, label %dnslabel_table_get_pos.exit.thread

.lr.ph.i:                                         ; preds = %.preheader.split
  %wide.trip.count.i = zext nneg i32 %25 to i64
  br label %28

27:                                               ; preds = %28
  %indvars.iv.next.i = add nuw nsw i64 %indvars.iv.i, 1
  %exitcond.not.i = icmp eq i64 %indvars.iv.next.i, %wide.trip.count.i
  br i1 %exitcond.not.i, label %dnslabel_table_get_pos.exit.thread, label %28, !llvm.loop !47

28:                                               ; preds = %27, %.lr.ph.i
  %indvars.iv.i = phi i64 [ 0, %.lr.ph.i ], [ %indvars.iv.next.i, %27 ]
  %29 = getelementptr inbounds nuw [128 x %struct.dnslabel_entry], ptr %9, i64 0, i64 %indvars.iv.i
  %30 = load ptr, ptr %29, align 8
  %31 = tail call i32 @strcmp(ptr noundef nonnull readonly dereferenceable(1) %.068, ptr noundef nonnull dereferenceable(1) %30) #23
  %.not.i = icmp eq i32 %31, 0
  br i1 %.not.i, label %dnslabel_table_get_pos.exit, label %27

dnslabel_table_get_pos.exit:                      ; preds = %28
  %32 = getelementptr inbounds nuw i8, ptr %29, i64 8
  %33 = load i64, ptr %32, align 8
  %34 = and i64 %33, 2147483648
  %35 = icmp eq i64 %34, 0
  br i1 %35, label %36, label %dnslabel_table_get_pos.exit.thread

36:                                               ; preds = %dnslabel_table_get_pos.exit
  %37 = add nsw i64 %.063, 2
  %38 = icmp sgt i64 %37, %1
  br i1 %38, label %.thread, label %39

39:                                               ; preds = %36
  %40 = trunc i64 %33 to i16
  %41 = or i16 %40, -16384
  %rev.i = tail call noundef i16 @llvm.bswap.i16(i16 %41)
  %42 = getelementptr inbounds i8, ptr %0, i64 %.063
  store i16 %rev.i, ptr %42, align 1
  br label %.thread

dnslabel_table_get_pos.exit.thread:               ; preds = %27, %.preheader.split, %dnslabel_table_get_pos.exit
  %43 = tail call ptr @strchr(ptr noundef nonnull dereferenceable(1) %.068, i32 noundef 46) #23
  %.not83 = icmp eq ptr %43, null
  br i1 %.not83, label %.split.us, label %65

.split.us:                                        ; preds = %dnslabel_table_get_pos.exit.thread, %dnslabel_table_get_pos.exit.thread.us, %.preheader.split.us
  %.us-phi = phi ptr [ %3, %.preheader.split.us ], [ %23, %dnslabel_table_get_pos.exit.thread.us ], [ %.068, %dnslabel_table_get_pos.exit.thread ]
  %.us-phi112 = phi i64 [ %2, %.preheader.split.us ], [ %18, %dnslabel_table_get_pos.exit.thread.us ], [ %.063, %dnslabel_table_get_pos.exit.thread ]
  %44 = ptrtoint ptr %7 to i64
  %45 = ptrtoint ptr %.us-phi to i64
  %46 = sub i64 %44, %45
  %47 = icmp ugt i64 %46, 63
  br i1 %47, label %.thread, label %48

48:                                               ; preds = %.split.us
  %49 = add i64 %.us-phi112, 1
  %50 = add i64 %49, %46
  %51 = icmp ugt i64 %50, %1
  br i1 %51, label %.thread, label %52

52:                                               ; preds = %48
  br i1 %.not, label %90, label %53

53:                                               ; preds = %52
  %54 = load i32, ptr %5, align 8
  %55 = icmp eq i32 %54, 128
  br i1 %55, label %90, label %56

56:                                               ; preds = %53
  %57 = tail call ptr @event_mm_strdup_(ptr noundef nonnull %.us-phi) #21
  %58 = icmp eq ptr %57, null
  br i1 %58, label %90, label %59

59:                                               ; preds = %56
  %60 = load i32, ptr %5, align 8
  %61 = add nsw i32 %60, 1
  store i32 %61, ptr %5, align 8
  %62 = sext i32 %60 to i64
  %63 = getelementptr inbounds [128 x %struct.dnslabel_entry], ptr %9, i64 0, i64 %62
  store ptr %57, ptr %63, align 8
  %64 = getelementptr inbounds nuw i8, ptr %63, i64 8
  store i64 %.us-phi112, ptr %64, align 8
  br label %90

65:                                               ; preds = %dnslabel_table_get_pos.exit.thread
  %66 = ptrtoint ptr %43 to i64
  %67 = ptrtoint ptr %.068 to i64
  %68 = sub i64 %66, %67
  %69 = icmp ugt i64 %68, 63
  br i1 %69, label %.thread, label %70

70:                                               ; preds = %65
  %71 = add i64 %.063, 1
  %72 = add i64 %71, %68
  %73 = icmp ugt i64 %72, %1
  br i1 %73, label %.thread, label %74

74:                                               ; preds = %70
  %75 = icmp eq i32 %25, 128
  br i1 %75, label %85, label %76

76:                                               ; preds = %74
  %77 = tail call ptr @event_mm_strdup_(ptr noundef nonnull %.068) #21
  %78 = icmp eq ptr %77, null
  br i1 %78, label %85, label %79

79:                                               ; preds = %76
  %80 = load i32, ptr %5, align 8
  %81 = add nsw i32 %80, 1
  store i32 %81, ptr %5, align 8
  %82 = sext i32 %80 to i64
  %83 = getelementptr inbounds [128 x %struct.dnslabel_entry], ptr %9, i64 0, i64 %82
  store ptr %77, ptr %83, align 8
  %84 = getelementptr inbounds nuw i8, ptr %83, i64 8
  store i64 %.063, ptr %84, align 8
  br label %85

85:                                               ; preds = %74, %76, %79
  %86 = trunc nuw nsw i64 %68 to i8
  %87 = getelementptr inbounds i8, ptr %0, i64 %.063
  store i8 %86, ptr %87, align 1
  %88 = getelementptr inbounds i8, ptr %0, i64 %71
  tail call void @llvm.memcpy.p0.p0.i64(ptr align 1 %88, ptr nonnull align 1 %.068, i64 %68, i1 false)
  %89 = getelementptr inbounds nuw i8, ptr %43, i64 1
  br label %.preheader.split

90:                                               ; preds = %52, %53, %56, %59
  %91 = trunc nuw nsw i64 %46 to i8
  %92 = getelementptr inbounds i8, ptr %0, i64 %.us-phi112
  store i8 %91, ptr %92, align 1
  %93 = getelementptr inbounds i8, ptr %0, i64 %49
  tail call void @llvm.memcpy.p0.p0.i64(ptr align 1 %93, ptr nonnull align 1 %.us-phi, i64 %46, i1 false)
  %.not84 = icmp eq i64 %50, 0
  br i1 %.not84, label %98, label %94

94:                                               ; preds = %90
  %95 = getelementptr i8, ptr %0, i64 %50
  %96 = getelementptr i8, ptr %95, i64 -1
  %97 = load i8, ptr %96, align 1
  %.not85 = icmp eq i8 %97, 0
  br i1 %.not85, label %.thread, label %98

98:                                               ; preds = %94, %90
  %99 = add nsw i64 %50, 1
  %100 = getelementptr inbounds i8, ptr %0, i64 %50
  store i8 0, ptr %100, align 1
  br label %.thread

.thread:                                          ; preds = %65, %70, %16, %.lr.ph, %48, %.split.us, %39, %36, %94, %98, %6
  %.0 = phi i64 [ -2, %6 ], [ %99, %98 ], [ %50, %94 ], [ -2, %36 ], [ -2, %48 ], [ -1, %.split.us ], [ %37, %39 ], [ -1, %.lr.ph ], [ -2, %16 ], [ -1, %65 ], [ -2, %70 ]
  ret i64 %.0
}